; Function Attrs: mustprogress nounwind uwtable
define dso_local noundef zeroext i1 @_ZNK31cmGeneratorExpressionDAGChecker25EvaluatingCompileFeaturesEv(ptr noundef nonnull align 8 dereferenceable(126) %0) local_unnamed_addr #4 align 2 {
  %2 = getelementptr inbounds nuw i8, ptr %0, i64 16
  %3 = tail call noundef ptr @_ZNKSt7__cxx1112basic_stringIcSt11char_traitsIcESaIcEE5c_strEv(ptr noundef nonnull align 8 dereferenceable(32) %2) #19
  %4 = tail call i32 @strcmp(ptr noundef nonnull dereferenceable(1) %3, ptr noundef nonnull dereferenceable(17) @.str.40) #20
  %5 = icmp eq i32 %4, 0
  br i1 %5, label %9, label %6

6:                                                ; preds = %1
  %7 = tail call i32 @strcmp(ptr noundef nonnull dereferenceable(1) %3, ptr noundef nonnull dereferenceable(27) @.str.41) #20
  %8 = icmp eq i32 %7, 0
  br label %9

9:                                                ; preds = %6, %1
  %.0 = phi i1 [ true, %1 ], [ %8, %6 ]
  ret i1 %.0
}